target datalayout = "e-m:e-p270:32:32-p271:32:32-p272:64:64-i64:64-i128:128-f80:128-n8:16:32:64-S128"
target triple = "x86_64-pc-linux-gnu"

%struct.re_pattern_buffer = type { ptr, i32, i32, i32, i32, i32, i32, i32, i32, i32, i32, i32, i32, i32, ptr, ptr, ptr, ptr, i32, i32, i32, i32, i64, i64, i32, ptr, ptr, [256 x i8], ptr, ptr, i64, i64, i64, ptr }

; Function Attrs: alwaysinline nounwind
define internal ptr @memcpy.inline(ptr noalias nonnull %0, ptr noalias nonnull %1, i64 %2) #7 {
  %4 = alloca ptr, align 8
  %5 = alloca ptr, align 8
  %6 = alloca i64, align 8
  store ptr %0, ptr %4, align 8, !tbaa !36
  store ptr %1, ptr %5, align 8, !tbaa !36
  store i64 %2, ptr %6, align 8, !tbaa !14
  %7 = load ptr, ptr %4, align 8, !tbaa !36
  %8 = load ptr, ptr %5, align 8, !tbaa !36
  %9 = load i64, ptr %6, align 8, !tbaa !14
  %10 = load ptr, ptr %4, align 8, !tbaa !36
  %11 = call i64 @llvm.objectsize.i64.p0(ptr %10, i1 false, i1 true, i1 false)
  %12 = call ptr @__memcpy_chk(ptr noundef %7, ptr noundef %8, i64 noundef %9, i64 noundef %11) #11
  ret ptr %12
}

; Function Attrs: nounwind sspstrong uwtable
define internal ptr @dup_copy(ptr noundef %0, i64 noundef %1) #0 {
  %3 = alloca ptr, align 8
  %4 = alloca i64, align 8
  %5 = alloca ptr, align 8
  store ptr %0, ptr %3, align 8, !tbaa !36
  store i64 %1, ptr %4, align 8, !tbaa !14
  call void @llvm.lifetime.start.p0(i64 8, ptr %5) #11
  %6 = load i64, ptr %4, align 8, !tbaa !14
  %7 = call noalias ptr @malloc(i64 noundef %6) #10
  store ptr %7, ptr %5, align 8, !tbaa !36
  %8 = load ptr, ptr %5, align 8, !tbaa !36
  %9 = icmp ne ptr %8, null
  br i1 %9, label %10, label %15

10:                                               ; preds = %2
  %11 = load ptr, ptr %5, align 8, !tbaa !36
  %12 = load ptr, ptr %3, align 8, !tbaa !36
  %13 = load i64, ptr %4, align 8, !tbaa !14
  %14 = call ptr @memcpy.inline(ptr noundef %11, ptr noundef %12, i64 noundef %13) #11
  br label %15

15:                                               ; preds = %10, %2
  %16 = load ptr, ptr %5, align 8, !tbaa !36
  call void @llvm.lifetime.end.p0(i64 8, ptr %5) #11
  ret ptr %16
}

; Function Attrs: nounwind sspstrong uwtable
define dso_local i32 @onig_reg_copy(ptr noundef %0, ptr noundef %1) #0 {
  %3 = alloca i32, align 4
  %4 = alloca ptr, align 8
  %5 = alloca ptr, align 8
  %6 = alloca ptr, align 8
  %7 = alloca i32, align 4
  %8 = alloca i64, align 8
  store ptr %0, ptr %4, align 8, !tbaa !32
  store ptr %1, ptr %5, align 8, !tbaa !21
  %9 = load ptr, ptr %5, align 8, !tbaa !21
  %10 = icmp ne ptr %9, null
  br i1 %10, label %11, label %177

11:                                               ; preds = %2
  call void @llvm.lifetime.start.p0(i64 8, ptr %6) #11
  %12 = call noalias ptr @malloc(i64 noundef 456) #10
  %13 = load ptr, ptr %4, align 8, !tbaa !32
  store ptr %12, ptr %13, align 8, !tbaa !21
  store ptr %12, ptr %6, align 8, !tbaa !21
  %14 = load ptr, ptr %6, align 8, !tbaa !21
  %15 = icmp eq ptr %14, null
  br i1 %15, label %16, label %17

16:                                               ; preds = %11
  store i32 -5, ptr %3, align 4
  store i32 1, ptr %7, align 4
  br label %176

17:                                               ; preds = %11
  %18 = load ptr, ptr %6, align 8, !tbaa !21
  %19 = load ptr, ptr %5, align 8, !tbaa !21
  call void @llvm.memcpy.p0.p0.i64(ptr align 8 %18, ptr align 8 %19, i64 456, i1 false), !tbaa.struct !34
  %20 = load ptr, ptr %6, align 8, !tbaa !21
  %21 = getelementptr inbounds nuw %struct.re_pattern_buffer, ptr %20, i32 0, i32 25
  %22 = load ptr, ptr %21, align 8, !tbaa !27
  %23 = icmp ne ptr %22, null
  br i1 %23, label %24, label %54

24:                                               ; preds = %17
  call void @llvm.lifetime.start.p0(i64 8, ptr %8) #11
  %25 = load ptr, ptr %6, align 8, !tbaa !21
  %26 = getelementptr inbounds nuw %struct.re_pattern_buffer, ptr %25, i32 0, i32 26
  %27 = load ptr, ptr %26, align 8, !tbaa !40
  %28 = load ptr, ptr %6, align 8, !tbaa !21
  %29 = getelementptr inbounds nuw %struct.re_pattern_buffer, ptr %28, i32 0, i32 25
  %30 = load ptr, ptr %29, align 8, !tbaa !27
  %31 = ptrtoint ptr %27 to i64
  %32 = ptrtoint ptr %30 to i64
  %33 = sub i64 %31, %32
  store i64 %33, ptr %8, align 8, !tbaa !14
  %34 = load ptr, ptr %6, align 8, !tbaa !21
  %35 = getelementptr inbounds nuw %struct.re_pattern_buffer, ptr %34, i32 0, i32 25
  %36 = load ptr, ptr %35, align 8, !tbaa !27
  %37 = load i64, ptr %8, align 8, !tbaa !14
  %38 = call ptr @dup_copy(ptr noundef %36, i64 noundef %37)
  %39 = load ptr, ptr %6, align 8, !tbaa !21
  %40 = getelementptr inbounds nuw %struct.re_pattern_buffer, ptr %39, i32 0, i32 25
  store ptr %38, ptr %40, align 8, !tbaa !27
  %41 = icmp eq ptr %38, null
  br i1 %41, label %42, label %43

42:                                               ; preds = %24
  store i32 2, ptr %7, align 4
  br label %51

43:                                               ; preds = %24
  %44 = load ptr, ptr %6, align 8, !tbaa !21
  %45 = getelementptr inbounds nuw %struct.re_pattern_buffer, ptr %44, i32 0, i32 25
  %46 = load ptr, ptr %45, align 8, !tbaa !27
  %47 = load i64, ptr %8, align 8, !tbaa !14
  %48 = getelementptr i8, ptr %46, i64 %47
  %49 = load ptr, ptr %6, align 8, !tbaa !21
  %50 = getelementptr inbounds nuw %struct.re_pattern_buffer, ptr %49, i32 0, i32 26
  store ptr %48, ptr %50, align 8, !tbaa !40
  store i32 0, ptr %7, align 4
  br label %51

51:                                               ; preds = %42, %43
  call void @llvm.lifetime.end.p0(i64 8, ptr %8) #11
  %52 = load i32, ptr %7, align 4
  switch i32 %52, label %176 [
    i32 0, label %53
    i32 2, label %174
  ]

53:                                               ; preds = %51
  br label %54

54:                                               ; preds = %53, %17
  %55 = load ptr, ptr %6, align 8, !tbaa !21
  %56 = getelementptr inbounds nuw %struct.re_pattern_buffer, ptr %55, i32 0, i32 28
  %57 = load ptr, ptr %56, align 8, !tbaa !28
  %58 = icmp ne ptr %57, null
  br i1 %58, label %59, label %69

59:                                               ; preds = %54
  %60 = load ptr, ptr %6, align 8, !tbaa !21
  %61 = getelementptr inbounds nuw %struct.re_pattern_buffer, ptr %60, i32 0, i32 28
  %62 = load ptr, ptr %61, align 8, !tbaa !28
  %63 = call ptr @dup_copy(ptr noundef %62, i64 noundef 1024)
  %64 = load ptr, ptr %6, align 8, !tbaa !21
  %65 = getelementptr inbounds nuw %struct.re_pattern_buffer, ptr %64, i32 0, i32 28
  store ptr %63, ptr %65, align 8, !tbaa !28
  %66 = icmp eq ptr %63, null
  br i1 %66, label %67, label %68

67:                                               ; preds = %59
  br label %170

68:                                               ; preds = %59
  br label %69

69:                                               ; preds = %68, %54
  %70 = load ptr, ptr %6, align 8, !tbaa !21
  %71 = getelementptr inbounds nuw %struct.re_pattern_buffer, ptr %70, i32 0, i32 29
  %72 = load ptr, ptr %71, align 8, !tbaa !29
  %73 = icmp ne ptr %72, null
  br i1 %73, label %74, label %84

74:                                               ; preds = %69
  %75 = load ptr, ptr %6, align 8, !tbaa !21
  %76 = getelementptr inbounds nuw %struct.re_pattern_buffer, ptr %75, i32 0, i32 29
  %77 = load ptr, ptr %76, align 8, !tbaa !29
  %78 = call ptr @dup_copy(ptr noundef %77, i64 noundef 1024)
  %79 = load ptr, ptr %6, align 8, !tbaa !21
  %80 = getelementptr inbounds nuw %struct.re_pattern_buffer, ptr %79, i32 0, i32 29
  store ptr %78, ptr %80, align 8, !tbaa !29
  %81 = icmp eq ptr %78, null
  br i1 %81, label %82, label %83

82:                                               ; preds = %74
  br label %166

83:                                               ; preds = %74
  br label %84

84:                                               ; preds = %83, %69
  %85 = load ptr, ptr %6, align 8, !tbaa !21
  %86 = getelementptr inbounds nuw %struct.re_pattern_buffer, ptr %85, i32 0, i32 0
  %87 = load ptr, ptr %86, align 8, !tbaa !23
  %88 = icmp ne ptr %87, null
  br i1 %88, label %89, label %103

89:                                               ; preds = %84
  %90 = load ptr, ptr %6, align 8, !tbaa !21
  %91 = getelementptr inbounds nuw %struct.re_pattern_buffer, ptr %90, i32 0, i32 0
  %92 = load ptr, ptr %91, align 8, !tbaa !23
  %93 = load ptr, ptr %6, align 8, !tbaa !21
  %94 = getelementptr inbounds nuw %struct.re_pattern_buffer, ptr %93, i32 0, i32 2
  %95 = load i32, ptr %94, align 4, !tbaa !41
  %96 = zext i32 %95 to i64
  %97 = call ptr @dup_copy(ptr noundef %92, i64 noundef %96)
  %98 = load ptr, ptr %6, align 8, !tbaa !21
  %99 = getelementptr inbounds nuw %struct.re_pattern_buffer, ptr %98, i32 0, i32 0
  store ptr %97, ptr %99, align 8, !tbaa !23
  %100 = icmp eq ptr %97, null
  br i1 %100, label %101, label %102

101:                                              ; preds = %89
  br label %162

102:                                              ; preds = %89
  br label %103

103:                                              ; preds = %102, %84
  %104 = load ptr, ptr %6, align 8, !tbaa !21
  %105 = getelementptr inbounds nuw %struct.re_pattern_buffer, ptr %104, i32 0, i32 14
  %106 = load ptr, ptr %105, align 8, !tbaa !30
  %107 = icmp ne ptr %106, null
  br i1 %107, label %108, label %123

108:                                              ; preds = %103
  %109 = load ptr, ptr %6, align 8, !tbaa !21
  %110 = getelementptr inbounds nuw %struct.re_pattern_buffer, ptr %109, i32 0, i32 14
  %111 = load ptr, ptr %110, align 8, !tbaa !30
  %112 = load ptr, ptr %6, align 8, !tbaa !21
  %113 = getelementptr inbounds nuw %struct.re_pattern_buffer, ptr %112, i32 0, i32 12
  %114 = load i32, ptr %113, align 4, !tbaa !42
  %115 = sext i32 %114 to i64
  %116 = mul i64 %115, 8
  %117 = call ptr @dup_copy(ptr noundef %111, i64 noundef %116)
  %118 = load ptr, ptr %6, align 8, !tbaa !21
  %119 = getelementptr inbounds nuw %struct.re_pattern_buffer, ptr %118, i32 0, i32 14
  store ptr %117, ptr %119, align 8, !tbaa !30
  %120 = icmp eq ptr %117, null
  br i1 %120, label %121, label %122

121:                                              ; preds = %108
  br label %158

122:                                              ; preds = %108
  br label %123

123:                                              ; preds = %122, %103
  %124 = load ptr, ptr %6, align 8, !tbaa !21
  %125 = getelementptr inbounds nuw %struct.re_pattern_buffer, ptr %124, i32 0, i32 17
  %126 = load ptr, ptr %125, align 8, !tbaa !43
  %127 = icmp ne ptr %126, null
  br i1 %127, label %128, label %135

128:                                              ; preds = %123
  %129 = load ptr, ptr %6, align 8, !tbaa !21
  %130 = load ptr, ptr %5, align 8, !tbaa !21
  %131 = call i32 @onig_names_copy(ptr noundef %129, ptr noundef %130)
  %132 = icmp ne i32 %131, 0
  br i1 %132, label %133, label %134

133:                                              ; preds = %128
  br label %154

134:                                              ; preds = %128
  br label %135

135:                                              ; preds = %134, %123
  %136 = load ptr, ptr %6, align 8, !tbaa !21
  %137 = getelementptr inbounds nuw %struct.re_pattern_buffer, ptr %136, i32 0, i32 33
  %138 = load ptr, ptr %137, align 8, !tbaa !31
  %139 = icmp ne ptr %138, null
  br i1 %139, label %140, label %150

140:                                              ; preds = %135
  %141 = load ptr, ptr %6, align 8, !tbaa !21
  %142 = getelementptr inbounds nuw %struct.re_pattern_buffer, ptr %141, i32 0, i32 33
  %143 = load ptr, ptr %6, align 8, !tbaa !21
  %144 = getelementptr inbounds nuw %struct.re_pattern_buffer, ptr %143, i32 0, i32 33
  %145 = load ptr, ptr %144, align 8, !tbaa !31
  %146 = call i32 @onig_reg_copy(ptr noundef %142, ptr noundef %145)
  %147 = icmp ne i32 %146, 0
  br i1 %147, label %148, label %149

148:                                              ; preds = %140
  br label %151

149:                                              ; preds = %140
  br label %150

150:                                              ; preds = %149, %135
  store i32 0, ptr %3, align 4
  store i32 1, ptr %7, align 4
  br label %176

151:                                              ; preds = %148
  %152 = load ptr, ptr %6, align 8, !tbaa !21
  %153 = call i32 @onig_names_free(ptr noundef %152)
  br label %154

154:                                              ; preds = %151, %133
  %155 = load ptr, ptr %6, align 8, !tbaa !21
  %156 = getelementptr inbounds nuw %struct.re_pattern_buffer, ptr %155, i32 0, i32 14
  %157 = load ptr, ptr %156, align 8, !tbaa !30
  call void @free(ptr noundef %157) #11
  br label %158

158:                                              ; preds = %154, %121
  %159 = load ptr, ptr %6, align 8, !tbaa !21
  %160 = getelementptr inbounds nuw %struct.re_pattern_buffer, ptr %159, i32 0, i32 0
  %161 = load ptr, ptr %160, align 8, !tbaa !23
  call void @free(ptr noundef %161) #11
  br label %162

162:                                              ; preds = %158, %101
  %163 = load ptr, ptr %6, align 8, !tbaa !21
  %164 = getelementptr inbounds nuw %struct.re_pattern_buffer, ptr %163, i32 0, i32 29
  %165 = load ptr, ptr %164, align 8, !tbaa !29
  call void @free(ptr noundef %165) #11
  br label %166

166:                                              ; preds = %162, %82
  %167 = load ptr, ptr %6, align 8, !tbaa !21
  %168 = getelementptr inbounds nuw %struct.re_pattern_buffer, ptr %167, i32 0, i32 28
  %169 = load ptr, ptr %168, align 8, !tbaa !28
  call void @free(ptr noundef %169) #11
  br label %170

170:                                              ; preds = %166, %67
  %171 = load ptr, ptr %6, align 8, !tbaa !21
  %172 = getelementptr inbounds nuw %struct.re_pattern_buffer, ptr %171, i32 0, i32 25
  %173 = load ptr, ptr %172, align 8, !tbaa !27
  call void @free(ptr noundef %173) #11
  br label %174

174:                                              ; preds = %170, %51
  %175 = load ptr, ptr %6, align 8, !tbaa !21
  call void @free(ptr noundef %175) #11
  store i32 -5, ptr %3, align 4
  store i32 1, ptr %7, align 4
  br label %176

176:                                              ; preds = %174, %150, %51, %16
  call void @llvm.lifetime.end.p0(i64 8, ptr %6) #11
  br label %178

177:                                              ; preds = %2
  store i32 0, ptr %3, align 4
  br label %178

178:                                              ; preds = %177, %176
  %179 = load i32, ptr %3, align 4
  ret i32 %179
}