; Function Attrs: nounwind sspstrong uwtable
define dso_local noundef range(i32 -5, 1) i32 @onig_reg_copy(ptr noundef writeonly captures(none) %0, ptr noundef %1) local_unnamed_addr #4 {
  %.not = icmp eq ptr %1, null
  br i1 %.not, label %70, label %3

3:                                                ; preds = %2
  %4 = tail call noalias dereferenceable_or_null(456) ptr @malloc(i64 noundef 456) #19
  store ptr %4, ptr %0, align 8, !tbaa !28
  %5 = icmp eq ptr %4, null
  br i1 %5, label %70, label %6

6:                                                ; preds = %3
  tail call void @llvm.memcpy.p0.p0.i64(ptr noundef nonnull align 8 dereferenceable(456) %4, ptr noundef nonnull align 8 dereferenceable(456) %1, i64 456, i1 false), !tbaa.struct !29
  %7 = getelementptr inbounds nuw i8, ptr %4, i64 136
  %8 = load ptr, ptr %7, align 8, !tbaa !23
  %.not52 = icmp eq ptr %8, null
  br i1 %.not52, label %17, label %9

9:                                                ; preds = %6
  %10 = getelementptr inbounds nuw i8, ptr %4, i64 144
  %11 = load ptr, ptr %10, align 8, !tbaa !36
  %12 = ptrtoint ptr %11 to i64
  %13 = ptrtoint ptr %8 to i64
  %14 = sub i64 %12, %13
  %15 = tail call noalias ptr @malloc(i64 noundef %14) #19
  %.not.i = icmp eq ptr %15, null
  br i1 %.not.i, label %69, label %.thread

.thread:                                          ; preds = %9
  tail call void @llvm.memcpy.p0.p0.i64(ptr noundef nonnull align 1 %15, ptr noundef nonnull readonly align 1 %8, i64 noundef %14, i1 noundef false) #20
  store ptr %15, ptr %7, align 8, !tbaa !23
  %16 = getelementptr i8, ptr %15, i64 %14
  store ptr %16, ptr %10, align 8, !tbaa !36
  br label %17

17:                                               ; preds = %.thread, %6
  %18 = phi ptr [ %15, %.thread ], [ null, %6 ]
  %19 = getelementptr inbounds nuw i8, ptr %4, i64 408
  %20 = load ptr, ptr %19, align 8, !tbaa !24
  %.not53 = icmp eq ptr %20, null
  br i1 %.not53, label %23, label %21

21:                                               ; preds = %17
  %22 = tail call noalias dereferenceable_or_null(1024) ptr @malloc(i64 noundef 1024) #19
  %.not.i62 = icmp eq ptr %22, null
  br i1 %.not.i62, label %dup_copy.exit63.thread, label %dup_copy.exit63

dup_copy.exit63.thread:                           ; preds = %21
  store ptr null, ptr %19, align 8, !tbaa !24
  br label %67

dup_copy.exit63:                                  ; preds = %21
  tail call void @llvm.memcpy.p0.p0.i64(ptr noundef nonnull align 1 dereferenceable(1024) %22, ptr noundef nonnull readonly align 1 dereferenceable(1024) %20, i64 noundef 1024, i1 noundef false) #20
  store ptr %22, ptr %19, align 8, !tbaa !24
  br label %23

23:                                               ; preds = %dup_copy.exit63, %17
  %24 = phi ptr [ %22, %dup_copy.exit63 ], [ null, %17 ]
  %25 = getelementptr inbounds nuw i8, ptr %4, i64 416
  %26 = load ptr, ptr %25, align 8, !tbaa !25
  %.not54 = icmp eq ptr %26, null
  br i1 %.not54, label %29, label %27

27:                                               ; preds = %23
  %28 = tail call noalias dereferenceable_or_null(1024) ptr @malloc(i64 noundef 1024) #19
  %.not.i64 = icmp eq ptr %28, null
  br i1 %.not.i64, label %dup_copy.exit65.thread, label %dup_copy.exit65

dup_copy.exit65.thread:                           ; preds = %27
  store ptr null, ptr %25, align 8, !tbaa !25
  br label %65

dup_copy.exit65:                                  ; preds = %27
  tail call void @llvm.memcpy.p0.p0.i64(ptr noundef nonnull align 1 dereferenceable(1024) %28, ptr noundef nonnull readonly align 1 dereferenceable(1024) %26, i64 noundef 1024, i1 noundef false) #20
  store ptr %28, ptr %25, align 8, !tbaa !25
  br label %29

29:                                               ; preds = %dup_copy.exit65, %23
  %30 = phi ptr [ %28, %dup_copy.exit65 ], [ null, %23 ]
  %31 = load ptr, ptr %4, align 8, !tbaa !17
  %.not55 = icmp eq ptr %31, null
  br i1 %.not55, label %37, label %32

32:                                               ; preds = %29
  %33 = getelementptr inbounds nuw i8, ptr %4, i64 12
  %34 = load i32, ptr %33, align 4, !tbaa !37
  %35 = zext i32 %34 to i64
  %36 = tail call noalias ptr @malloc(i64 noundef %35) #19
  %.not.i66 = icmp eq ptr %36, null
  br i1 %.not.i66, label %dup_copy.exit67.thread, label %dup_copy.exit67

dup_copy.exit67.thread:                           ; preds = %32
  store ptr null, ptr %4, align 8, !tbaa !17
  br label %63

dup_copy.exit67:                                  ; preds = %32
  tail call void @llvm.memcpy.p0.p0.i64(ptr noundef nonnull align 1 %36, ptr noundef nonnull readonly align 1 %31, i64 noundef %35, i1 noundef false) #20
  store ptr %36, ptr %4, align 8, !tbaa !17
  br label %37

37:                                               ; preds = %dup_copy.exit67, %29
  %38 = phi ptr [ %36, %dup_copy.exit67 ], [ null, %29 ]
  %39 = getelementptr inbounds nuw i8, ptr %4, i64 64
  %40 = load ptr, ptr %39, align 8, !tbaa !26
  %.not56 = icmp eq ptr %40, null
  br i1 %.not56, label %47, label %41

41:                                               ; preds = %37
  %42 = getelementptr inbounds nuw i8, ptr %4, i64 52
  %43 = load i32, ptr %42, align 4, !tbaa !38
  %44 = sext i32 %43 to i64
  %45 = shl nsw i64 %44, 3
  %46 = tail call noalias ptr @malloc(i64 noundef %45) #19
  %.not.i68 = icmp eq ptr %46, null
  br i1 %.not.i68, label %dup_copy.exit69.thread, label %dup_copy.exit69

dup_copy.exit69.thread:                           ; preds = %41
  store ptr null, ptr %39, align 8, !tbaa !26
  br label %61

dup_copy.exit69:                                  ; preds = %41
  tail call void @llvm.memcpy.p0.p0.i64(ptr noundef nonnull align 1 %46, ptr noundef nonnull readonly align 1 %40, i64 noundef %45, i1 noundef false) #20
  store ptr %46, ptr %39, align 8, !tbaa !26
  br label %47

47:                                               ; preds = %dup_copy.exit69, %37
  %48 = getelementptr inbounds nuw i8, ptr %4, i64 88
  %49 = load ptr, ptr %48, align 8, !tbaa !39
  %.not57 = icmp eq ptr %49, null
  br i1 %.not57, label %52, label %50

50:                                               ; preds = %47
  %51 = tail call i32 @onig_names_copy(ptr noundef nonnull %4, ptr noundef nonnull %1) #20
  %.not58 = icmp eq i32 %51, 0
  br i1 %.not58, label %52, label %59

52:                                               ; preds = %50, %47
  %53 = getelementptr inbounds nuw i8, ptr %4, i64 448
  %54 = load ptr, ptr %53, align 8, !tbaa !27
  %.not59 = icmp eq ptr %54, null
  br i1 %.not59, label %70, label %55

55:                                               ; preds = %52
  %56 = tail call i32 @onig_reg_copy(ptr noundef nonnull %53, ptr noundef nonnull %54)
  %.not60 = icmp eq i32 %56, 0
  br i1 %.not60, label %70, label %57

57:                                               ; preds = %55
  %58 = tail call i32 @onig_names_free(ptr noundef nonnull %4) #20
  br label %59

59:                                               ; preds = %50, %57
  %60 = load ptr, ptr %39, align 8, !tbaa !26
  tail call void @free(ptr noundef %60) #20
  %.pre = load ptr, ptr %4, align 8, !tbaa !17
  br label %61

61:                                               ; preds = %dup_copy.exit69.thread, %59
  %62 = phi ptr [ %38, %dup_copy.exit69.thread ], [ %.pre, %59 ]
  tail call void @free(ptr noundef %62) #20
  %.pre72 = load ptr, ptr %25, align 8, !tbaa !25
  br label %63

63:                                               ; preds = %dup_copy.exit67.thread, %61
  %64 = phi ptr [ %30, %dup_copy.exit67.thread ], [ %.pre72, %61 ]
  tail call void @free(ptr noundef %64) #20
  %.pre73 = load ptr, ptr %19, align 8, !tbaa !24
  br label %65

65:                                               ; preds = %dup_copy.exit65.thread, %63
  %66 = phi ptr [ %24, %dup_copy.exit65.thread ], [ %.pre73, %63 ]
  tail call void @free(ptr noundef %66) #20
  %.pre74 = load ptr, ptr %7, align 8, !tbaa !23
  br label %67

67:                                               ; preds = %dup_copy.exit63.thread, %65
  %68 = phi ptr [ %18, %dup_copy.exit63.thread ], [ %.pre74, %65 ]
  tail call void @free(ptr noundef %68) #20
  br label %69

69:                                               ; preds = %9, %67
  tail call void @free(ptr noundef nonnull %4) #20
  br label %70

70:                                               ; preds = %2, %69, %3, %55, %52
  %.1 = phi i32 [ -5, %69 ], [ -5, %3 ], [ 0, %55 ], [ 0, %52 ], [ 0, %2 ]
  ret i32 %.1
}